; Function Attrs: mustprogress nofree norecurse nosync nounwind willreturn memory(read, inaccessiblemem: none) uwtable
define i32 @Cudd_ReadInvPermZdd(ptr noundef readonly captures(none) %0, i32 noundef %1) local_unnamed_addr #4 {
  %3 = icmp eq i32 %1, 2147483647
  br i1 %3, label %15, label %4

4:                                                ; preds = %2
  %5 = icmp slt i32 %1, 0
  br i1 %5, label %15, label %6

6:                                                ; preds = %4
  %7 = getelementptr inbounds nuw i8, ptr %0, i64 140
  %8 = load i32, ptr %7, align 4
  %.not = icmp slt i32 %1, %8
  br i1 %.not, label %9, label %15

9:                                                ; preds = %6
  %10 = getelementptr inbounds nuw i8, ptr %0, i64 336
  %11 = load ptr, ptr %10, align 8
  %12 = zext nneg i32 %1 to i64
  %13 = getelementptr inbounds nuw i32, ptr %11, i64 %12
  %14 = load i32, ptr %13, align 4
  br label %15

15:                                               ; preds = %4, %6, %2, %9
  %.0 = phi i32 [ %14, %9 ], [ 2147483647, %2 ], [ -1, %6 ], [ -1, %4 ]
  ret i32 %.0
}